; Function Attrs: mustprogress nofree norecurse nosync nounwind willreturn memory(argmem: read) uwtable
define dso_local { i64, ptr } @_ZNK4llvm6object14WasmObjectFile10symbol_endEv(ptr noundef nonnull align 8 dereferenceable(684) %0) unnamed_addr #4 align 2 {
  %2 = getelementptr inbounds nuw i8, ptr %0, i64 536
  %3 = getelementptr inbounds i8, ptr %0, i64 544
  %4 = load ptr, ptr %3, align 8
  %5 = load ptr, ptr %2, align 8
  %6 = ptrtoint ptr %4 to i64
  %7 = ptrtoint ptr %5 to i64
  %8 = sub i64 %6, %7
  %9 = sdiv exact i64 %8, 144
  %.sroa.3.0.insert.ext = shl i64 %9, 32
  %.sroa.01.0.insert.insert = or disjoint i64 %.sroa.3.0.insert.ext, 1
  %.fca.0.insert = insertvalue { i64, ptr } poison, i64 %.sroa.01.0.insert.insert, 0
  %.fca.1.insert = insertvalue { i64, ptr } %.fca.0.insert, ptr %0, 1
  ret { i64, ptr } %.fca.1.insert
}